#include <math.h>
#include <stdio.h>
#include <stdlib.h>
#include <string.h>

int main()
{
	int count,n,j,i=1;
	int a[20000];
	scanf("%d",&n);
	for(i;i<=n;i++)
	{
		scanf("%d",&a[i]);
		for(count=0,j=1;j<i;j++)
		{
			if(a[i]==a[j])
				count++;
		}
		if(i==1&&count==0)
			printf("%d",a[i]);
		else if(i!=1&&count==0)
			printf(" %d",a[i]);
	}
	return 0;
}
