; ModuleID = '13/1912.c'
source_filename = "13/1912.c"
target datalayout = "e-m:e-p270:32:32-p271:32:32-p272:64:64-i64:64-f80:128-n8:16:32:64-S128"
target triple = "x86_64-pc-linux-gnu"

@.str = private unnamed_addr constant [3 x i8] c"%d\00", align 1
@.str.1 = private unnamed_addr constant [4 x i8] c" %d\00", align 1

; Function Attrs: noinline nounwind uwtable
define dso_local i32 @main() #0 {
  %1 = alloca i32, align 4
  %2 = alloca i32, align 4
  %3 = alloca i32, align 4
  %4 = alloca i32, align 4
  %5 = alloca i32, align 4
  %6 = alloca [20000 x i32], align 16
  store i32 0, i32* %1, align 4
  store i32 1, i32* %5, align 4
  %7 = call i32 (i8*, ...) @__isoc99_scanf(i8* getelementptr inbounds ([3 x i8], [3 x i8]* @.str, i64 0, i64 0), i32* %3)
  %8 = load i32, i32* %5, align 4
  br label %9

9:                                                ; preds = %65, %0
  %10 = load i32, i32* %5, align 4
  %11 = load i32, i32* %3, align 4
  %12 = icmp sle i32 %10, %11
  br i1 %12, label %13, label %68

13:                                               ; preds = %9
  %14 = load i32, i32* %5, align 4
  %15 = sext i32 %14 to i64
  %16 = getelementptr inbounds [20000 x i32], [20000 x i32]* %6, i64 0, i64 %15
  %17 = call i32 (i8*, ...) @__isoc99_scanf(i8* getelementptr inbounds ([3 x i8], [3 x i8]* @.str, i64 0, i64 0), i32* %16)
  store i32 0, i32* %2, align 4
  store i32 1, i32* %4, align 4
  br label %18

18:                                               ; preds = %36, %13
  %19 = load i32, i32* %4, align 4
  %20 = load i32, i32* %5, align 4
  %21 = icmp slt i32 %19, %20
  br i1 %21, label %22, label %39

22:                                               ; preds = %18
  %23 = load i32, i32* %5, align 4
  %24 = sext i32 %23 to i64
  %25 = getelementptr inbounds [20000 x i32], [20000 x i32]* %6, i64 0, i64 %24
  %26 = load i32, i32* %25, align 4
  %27 = load i32, i32* %4, align 4
  %28 = sext i32 %27 to i64
  %29 = getelementptr inbounds [20000 x i32], [20000 x i32]* %6, i64 0, i64 %28
  %30 = load i32, i32* %29, align 4
  %31 = icmp eq i32 %26, %30
  br i1 %31, label %32, label %35

32:                                               ; preds = %22
  %33 = load i32, i32* %2, align 4
  %34 = add nsw i32 %33, 1
  store i32 %34, i32* %2, align 4
  br label %35

35:                                               ; preds = %32, %22
  br label %36

36:                                               ; preds = %35
  %37 = load i32, i32* %4, align 4
  %38 = add nsw i32 %37, 1
  store i32 %38, i32* %4, align 4
  br label %18

39:                                               ; preds = %18
  %40 = load i32, i32* %5, align 4
  %41 = icmp eq i32 %40, 1
  br i1 %41, label %42, label %51

42:                                               ; preds = %39
  %43 = load i32, i32* %2, align 4
  %44 = icmp eq i32 %43, 0
  br i1 %44, label %45, label %51

45:                                               ; preds = %42
  %46 = load i32, i32* %5, align 4
  %47 = sext i32 %46 to i64
  %48 = getelementptr inbounds [20000 x i32], [20000 x i32]* %6, i64 0, i64 %47
  %49 = load i32, i32* %48, align 4
  %50 = call i32 (i8*, ...) @printf(i8* getelementptr inbounds ([3 x i8], [3 x i8]* @.str, i64 0, i64 0), i32 %49)
  br label %64

51:                                               ; preds = %42, %39
  %52 = load i32, i32* %5, align 4
  %53 = icmp ne i32 %52, 1
  br i1 %53, label %54, label %63

54:                                               ; preds = %51
  %55 = load i32, i32* %2, align 4
  %56 = icmp eq i32 %55, 0
  br i1 %56, label %57, label %63

57:                                               ; preds = %54
  %58 = load i32, i32* %5, align 4
  %59 = sext i32 %58 to i64
  %60 = getelementptr inbounds [20000 x i32], [20000 x i32]* %6, i64 0, i64 %59
  %61 = load i32, i32* %60, align 4
  %62 = call i32 (i8*, ...) @printf(i8* getelementptr inbounds ([4 x i8], [4 x i8]* @.str.1, i64 0, i64 0), i32 %61)
  br label %63

63:                                               ; preds = %57, %54, %51
  br label %64

64:                                               ; preds = %63, %45
  br label %65

65:                                               ; preds = %64
  %66 = load i32, i32* %5, align 4
  %67 = add nsw i32 %66, 1
  store i32 %67, i32* %5, align 4
  br label %9

68:                                               ; preds = %9
  ret i32 0
}

declare dso_local i32 @__isoc99_scanf(i8*, ...) #1

declare dso_local i32 @printf(i8*, ...) #1


!llvm.module.flags = !{!0}
!llvm.ident = !{!1}

!0 = !{i32 1, !"wchar_size", i32 4}
!1 = !{!"clang version 10.0.0-4ubuntu1 "}
